; Function Attrs: nounwind uwtable
define internal fastcc void @SetFullscreen(ptr noundef readonly captures(none) %0, ptr noundef %1) unnamed_addr #0 {
  %3 = getelementptr inbounds nuw i8, ptr %0, i64 392
  %4 = load ptr, ptr %3, align 8
  %5 = getelementptr inbounds nuw i8, ptr %4, i64 8
  %6 = load ptr, ptr %5, align 8
  %7 = getelementptr inbounds nuw i8, ptr %4, i64 88
  %8 = load i32, ptr %7, align 8
  %9 = icmp eq i32 %8, 1
  br i1 %9, label %10, label %42

10:                                               ; preds = %2
  %11 = getelementptr inbounds nuw i8, ptr %4, i64 64
  %12 = load ptr, ptr %11, align 8
  %13 = icmp eq ptr %12, null
  br i1 %13, label %54, label %14

14:                                               ; preds = %10
  %.not = icmp eq ptr %1, null
  br i1 %.not, label %.critedge, label %15

15:                                               ; preds = %14
  %16 = getelementptr inbounds nuw i8, ptr %0, i64 93
  %17 = load i8, ptr %16, align 1, !range !5, !noundef !6
  %18 = getelementptr inbounds nuw i8, ptr %4, i64 398
  store i8 %17, ptr %18, align 2
  %19 = getelementptr inbounds nuw i8, ptr %4, i64 368
  %20 = load i32, ptr %19, align 8
  %21 = add nsw i32 %20, 1
  store i32 %21, ptr %19, align 8
  %22 = tail call ptr @SDL_GetVideoDevice() #15
  tail call fastcc void @SetMinMaxDimensions(ptr noundef nonnull readonly %0)
  %23 = getelementptr inbounds nuw i8, ptr %4, i64 16
  %24 = load ptr, ptr %23, align 8
  %25 = load ptr, ptr @WAYLAND_wl_proxy_marshal_flags, align 8
  %26 = load ptr, ptr @WAYLAND_wl_proxy_get_version, align 8
  %27 = tail call i32 %26(ptr noundef %24) #15
  %28 = tail call ptr (ptr, i32, ptr, i32, i32, ...) %25(ptr noundef %24, i32 noundef 6, ptr noundef null, i32 noundef %27, i32 noundef 0) #15
  %29 = load ptr, ptr %11, align 8
  %30 = load ptr, ptr @WAYLAND_wl_proxy_marshal_flags, align 8
  %31 = load ptr, ptr @WAYLAND_wl_proxy_get_version, align 8
  %32 = tail call i32 %31(ptr noundef %29) #15
  %33 = tail call ptr (ptr, i32, ptr, i32, i32, ...) %30(ptr noundef %29, i32 noundef 11, ptr noundef null, i32 noundef %32, i32 noundef 0, ptr noundef nonnull %1) #15
  br label %42

.critedge:                                        ; preds = %14
  %34 = getelementptr inbounds nuw i8, ptr %4, i64 398
  store i8 0, ptr %34, align 2
  %35 = getelementptr inbounds nuw i8, ptr %4, i64 368
  %36 = load i32, ptr %35, align 8
  %37 = add nsw i32 %36, 1
  store i32 %37, ptr %35, align 8
  %38 = load ptr, ptr @WAYLAND_wl_proxy_marshal_flags, align 8
  %39 = load ptr, ptr @WAYLAND_wl_proxy_get_version, align 8
  %40 = tail call i32 %39(ptr noundef nonnull %12) #15
  %41 = tail call ptr (ptr, i32, ptr, i32, i32, ...) %38(ptr noundef nonnull %12, i32 noundef 12, ptr noundef null, i32 noundef %40, i32 noundef 0) #15
  br label %42

42:                                               ; preds = %15, %.critedge, %2
  %43 = getelementptr inbounds nuw i8, ptr %6, i64 8
  %44 = load ptr, ptr %43, align 8
  %45 = load ptr, ptr @WAYLAND_wl_proxy_marshal_flags, align 8
  %46 = load ptr, ptr @WAYLAND_wl_proxy_get_version, align 8
  %47 = tail call i32 %46(ptr noundef %44) #15
  %48 = tail call ptr (ptr, i32, ptr, i32, i32, ...) %45(ptr noundef %44, i32 noundef 0, ptr noundef nonnull @wl_callback_interface, i32 noundef %47, i32 noundef 0, ptr noundef null) #15
  %49 = load i32, ptr %0, align 8
  %50 = zext i32 %49 to i64
  %51 = inttoptr i64 %50 to ptr
  %52 = load ptr, ptr @WAYLAND_wl_proxy_add_listener, align 8
  %53 = tail call i32 %52(ptr noundef %48, ptr noundef nonnull @fullscreen_deadline_listener, ptr noundef %51) #15
  br label %54

54:                                               ; preds = %10, %42
  ret void
}